target datalayout = "e-m:e-p270:32:32-p271:32:32-p272:64:64-i64:64-i128:128-f80:128-n8:16:32:64-S128"
target triple = "x86_64-pc-linux-gnu"

%struct.JNINativeInterface_ = type { ptr, ptr, ptr, ptr, ptr, ptr, ptr, ptr, ptr, ptr, ptr, ptr, ptr, ptr, ptr, ptr, ptr, ptr, ptr, ptr, ptr, ptr, ptr, ptr, ptr, ptr, ptr, ptr, ptr, ptr, ptr, ptr, ptr, ptr, ptr, ptr, ptr, ptr, ptr, ptr, ptr, ptr, ptr, ptr, ptr, ptr, ptr, ptr, ptr, ptr, ptr, ptr, ptr, ptr, ptr, ptr, ptr, ptr, ptr, ptr, ptr, ptr, ptr, ptr, ptr, ptr, ptr, ptr, ptr, ptr, ptr, ptr, ptr, ptr, ptr, ptr, ptr, ptr, ptr, ptr, ptr, ptr, ptr, ptr, ptr, ptr, ptr, ptr, ptr, ptr, ptr, ptr, ptr, ptr, ptr, ptr, ptr, ptr, ptr, ptr, ptr, ptr, ptr, ptr, ptr, ptr, ptr, ptr, ptr, ptr, ptr, ptr, ptr, ptr, ptr, ptr, ptr, ptr, ptr, ptr, ptr, ptr, ptr, ptr, ptr, ptr, ptr, ptr, ptr, ptr, ptr, ptr, ptr, ptr, ptr, ptr, ptr, ptr, ptr, ptr, ptr, ptr, ptr, ptr, ptr, ptr, ptr, ptr, ptr, ptr, ptr, ptr, ptr, ptr, ptr, ptr, ptr, ptr, ptr, ptr, ptr, ptr, ptr, ptr, ptr, ptr, ptr, ptr, ptr, ptr, ptr, ptr, ptr, ptr, ptr, ptr, ptr, ptr, ptr, ptr, ptr, ptr, ptr, ptr, ptr, ptr, ptr, ptr, ptr, ptr, ptr, ptr, ptr, ptr, ptr, ptr, ptr, ptr, ptr, ptr, ptr, ptr, ptr, ptr, ptr, ptr, ptr, ptr, ptr, ptr, ptr, ptr, ptr, ptr, ptr, ptr, ptr, ptr, ptr, ptr, ptr, ptr, ptr, ptr, ptr, ptr, ptr, ptr, ptr, ptr, ptr, ptr, ptr, ptr, ptr }
%struct.CK_FUNCTION_LIST = type { %struct.CK_VERSION, ptr, ptr, ptr, ptr, ptr, ptr, ptr, ptr, ptr, ptr, ptr, ptr, ptr, ptr, ptr, ptr, ptr, ptr, ptr, ptr, ptr, ptr, ptr, ptr, ptr, ptr, ptr, ptr, ptr, ptr, ptr, ptr, ptr, ptr, ptr, ptr, ptr, ptr, ptr, ptr, ptr, ptr, ptr, ptr, ptr, ptr, ptr, ptr, ptr, ptr, ptr, ptr, ptr, ptr, ptr, ptr, ptr, ptr, ptr, ptr, ptr, ptr, ptr, ptr, ptr, ptr, ptr, ptr }
%struct.CK_VERSION = type { i8, i8 }

; Function Attrs: nounwind uwtable
define void @Java_sun_security_pkcs11_wrapper_PKCS11_C_1SetAttributeValue(ptr noundef %0, ptr noundef %1, i64 noundef %2, i64 noundef %3, ptr noundef %4) #0 {
  %6 = alloca ptr, align 8
  %7 = alloca ptr, align 8
  %8 = alloca i64, align 8
  %9 = alloca i64, align 8
  %10 = alloca ptr, align 8
  %11 = alloca i64, align 8
  %12 = alloca i64, align 8
  %13 = alloca ptr, align 8
  %14 = alloca i64, align 8
  %15 = alloca i64, align 8
  %16 = alloca ptr, align 8
  store ptr %0, ptr %6, align 8
  store ptr %1, ptr %7, align 8
  store i64 %2, ptr %8, align 8
  store i64 %3, ptr %9, align 8
  store ptr %4, ptr %10, align 8
  store ptr null, ptr %13, align 8
  %17 = load ptr, ptr %6, align 8
  %18 = load ptr, ptr %7, align 8
  %19 = call ptr @getFunctionList(ptr noundef %17, ptr noundef %18)
  store ptr %19, ptr %16, align 8
  %20 = load ptr, ptr %16, align 8
  %21 = icmp eq ptr %20, null
  br i1 %21, label %22, label %23

22:                                               ; preds = %5
  br label %53

23:                                               ; preds = %5
  %24 = load i64, ptr %8, align 8
  store i64 %24, ptr %11, align 8
  %25 = load i64, ptr %9, align 8
  store i64 %25, ptr %12, align 8
  %26 = load ptr, ptr %6, align 8
  %27 = load ptr, ptr %10, align 8
  call void @jAttributeArrayToCKAttributeArray(ptr noundef %26, ptr noundef %27, ptr noundef %13, ptr noundef %14)
  %28 = load ptr, ptr %6, align 8
  %29 = load ptr, ptr %28, align 8
  %30 = getelementptr inbounds %struct.JNINativeInterface_, ptr %29, i32 0, i32 228
  %31 = load ptr, ptr %30, align 8
  %32 = load ptr, ptr %6, align 8
  %33 = call zeroext i8 %31(ptr noundef %32)
  %34 = icmp ne i8 %33, 0
  br i1 %34, label %35, label %36

35:                                               ; preds = %23
  br label %53

36:                                               ; preds = %23
  %37 = load ptr, ptr %16, align 8
  %38 = getelementptr inbounds %struct.CK_FUNCTION_LIST, ptr %37, i32 0, i32 26
  %39 = load ptr, ptr %38, align 8
  %40 = load i64, ptr %11, align 8
  %41 = load i64, ptr %12, align 8
  %42 = load ptr, ptr %13, align 8
  %43 = load i64, ptr %14, align 8
  %44 = call i64 %39(i64 noundef %40, i64 noundef %41, ptr noundef %42, i64 noundef %43)
  store i64 %44, ptr %15, align 8
  %45 = load ptr, ptr %13, align 8
  %46 = load i64, ptr %14, align 8
  %47 = trunc i64 %46 to i32
  call void @freeCKAttributeArray(ptr noundef %45, i32 noundef %47)
  %48 = load ptr, ptr %6, align 8
  %49 = load i64, ptr %15, align 8
  %50 = call i64 @ckAssertReturnValueOK(ptr noundef %48, i64 noundef %49)
  %51 = icmp ne i64 %50, 0
  br i1 %51, label %52, label %53

52:                                               ; preds = %36
  br label %53

53:                                               ; preds = %52, %36, %35, %22
  ret void
}