; Function Attrs: nounwind uwtable
define void @Java_sun_security_pkcs11_wrapper_PKCS11_C_1SetAttributeValue(ptr noundef %0, ptr noundef %1, i64 noundef %2, i64 noundef %3, ptr noundef %4) local_unnamed_addr #0 {
  %6 = alloca ptr, align 8
  %7 = alloca i64, align 8
  store ptr null, ptr %6, align 8
  %8 = tail call ptr @getFunctionList(ptr noundef %0, ptr noundef %1) #5
  %9 = icmp eq ptr %8, null
  br i1 %9, label %25, label %10

10:                                               ; preds = %5
  call void @jAttributeArrayToCKAttributeArray(ptr noundef %0, ptr noundef %4, ptr noundef nonnull %6, ptr noundef nonnull %7) #5
  %11 = load ptr, ptr %0, align 8
  %12 = getelementptr inbounds i8, ptr %11, i64 1824
  %13 = load ptr, ptr %12, align 8
  %14 = call zeroext i8 %13(ptr noundef nonnull %0) #5
  %.not = icmp eq i8 %14, 0
  br i1 %.not, label %15, label %25

15:                                               ; preds = %10
  %16 = getelementptr inbounds i8, ptr %8, i64 208
  %17 = load ptr, ptr %16, align 8
  %18 = load ptr, ptr %6, align 8
  %19 = load i64, ptr %7, align 8
  %20 = call i64 %17(i64 noundef %2, i64 noundef %3, ptr noundef %18, i64 noundef %19) #5
  %21 = load ptr, ptr %6, align 8
  %22 = load i64, ptr %7, align 8
  %23 = trunc i64 %22 to i32
  call void @freeCKAttributeArray(ptr noundef %21, i32 noundef %23) #5
  %24 = call i64 @ckAssertReturnValueOK(ptr noundef nonnull %0, i64 noundef %20) #5
  br label %25

25:                                               ; preds = %15, %10, %5
  ret void
}